(dp0
Vengine
p1
Vxelatex
p2
sVpackages
p3
c__builtin__
set
p4
((lp5
Vsiunitx
p6
aVmhchem
p7
aVxcolor
p8
aVepsfig
p9
aVamsmath
p10
aVbm
p11
aVlistings
p12
aVmathrsfs
p13
aVgraphicx
p14
atp15
Rp16
sVfiles_with_guttermarks
p17
g4
((lp18
V/usr/local/texlive/2016/texmf-dist/tex/latex/fontspec/fontspec.sty
p19
aS'normalmode.tex'
p20
aV/Users/ren/x_documents/projects/IETS/doc/normal_mode/normalmode.tex
p21
aV/Users/ren/x_documents/projects/IETS/doc/normal_mode/./normalmode.tex
p22
atp23
Rp24
sVsynctex
p25
I01
s.